; Function Attrs: mustprogress uwtable
define noundef zeroext i1 @_Z23alts_reset_frame_writerP17alts_frame_writerPKhm(ptr noundef writeonly captures(none) %0, ptr noundef %1, i64 noundef %2) local_unnamed_addr #0 personality ptr @__gxx_personality_v0 {
  %4 = alloca i64, align 8
  %5 = alloca %"class.absl::lts_20240722::log_internal::LogMessage", align 8
  %6 = icmp eq ptr %1, null
  br i1 %6, label %34, label %7

7:                                                ; preds = %3
  %8 = icmp ult i64 %2, -4
  br i1 %8, label %14, label %9

9:                                                ; preds = %7
  call void @llvm.lifetime.start.p0(i64 16, ptr nonnull %5) #11
  call void @_ZN4absl12lts_2024072212log_internal10LogMessageC1EPKciNS2_8ErrorTagE(ptr noundef nonnull align 8 dereferenceable(16) %5, ptr noundef nonnull @.str, i32 noundef 59) #12
  invoke void @_ZN4absl12lts_2024072212log_internal10LogMessage19CopyToEncodedBufferILNS2_10StringTypeE0EEEvSt17basic_string_viewIcSt11char_traitsIcEE(ptr noundef nonnull align 8 dereferenceable(16) %5, i64 23, ptr nonnull @.str.1)
          to label %_ZN4absl12lts_2024072212log_internal10LogMessagelsILi24EEERS2_RAT__Kc.exit unwind label %12

_ZN4absl12lts_2024072212log_internal10LogMessagelsILi24EEERS2_RAT__Kc.exit: ; preds = %9
  call void @llvm.lifetime.start.p0(i64 8, ptr nonnull %4)
  store i64 -5, ptr %4, align 8, !tbaa !3
  %10 = invoke noundef nonnull align 8 dereferenceable(16) ptr @_ZN4absl12lts_2024072212log_internal10LogMessagelsImTnNSt9enable_ifIXntsr4absl16HasAbslStringifyIT_EE5valueEiE4typeELi0EEERS2_RKS5_(ptr noundef nonnull align 8 dereferenceable(16) %5, ptr noundef nonnull align 8 dereferenceable(8) %4)
          to label %11 unwind label %12

11:                                               ; preds = %_ZN4absl12lts_2024072212log_internal10LogMessagelsILi24EEERS2_RAT__Kc.exit
  call void @llvm.lifetime.end.p0(i64 8, ptr nonnull %4)
  call void @_ZN4absl12lts_2024072212log_internal10LogMessageD1Ev(ptr noundef nonnull align 8 dereferenceable(16) %5) #13
  call void @llvm.lifetime.end.p0(i64 16, ptr nonnull %5) #11
  br label %34

12:                                               ; preds = %_ZN4absl12lts_2024072212log_internal10LogMessagelsILi24EEERS2_RAT__Kc.exit, %9
  %13 = landingpad { ptr, i32 }
          cleanup
  call void @_ZN4absl12lts_2024072212log_internal10LogMessageD1Ev(ptr noundef nonnull align 8 dereferenceable(16) %5) #13
  call void @llvm.lifetime.end.p0(i64 16, ptr nonnull %5) #11
  resume { ptr, i32 } %13

14:                                               ; preds = %7
  store ptr %1, ptr %0, align 8, !tbaa !7
  %15 = getelementptr inbounds nuw i8, ptr %0, i64 32
  store i64 %2, ptr %15, align 8, !tbaa !11
  %16 = getelementptr inbounds nuw i8, ptr %0, i64 16
  %17 = trunc i64 %2 to i32
  %18 = add i32 %17, 4
  %19 = getelementptr inbounds nuw i8, ptr %0, i64 8
  %20 = lshr i32 %18, 24
  %21 = trunc nuw i32 %20 to i8
  %22 = getelementptr inbounds nuw i8, ptr %0, i64 11
  tail call void @llvm.memset.p0.i64(ptr noundef nonnull align 8 dereferenceable(16) %16, i8 0, i64 16, i1 false)
  store i8 %21, ptr %22, align 1, !tbaa !12
  %23 = lshr i32 %18, 16
  %24 = trunc i32 %23 to i8
  %25 = getelementptr inbounds nuw i8, ptr %0, i64 10
  store i8 %24, ptr %25, align 1, !tbaa !12
  %26 = lshr i32 %18, 8
  %27 = trunc i32 %26 to i8
  %28 = getelementptr inbounds nuw i8, ptr %0, i64 9
  store i8 %27, ptr %28, align 1, !tbaa !12
  %29 = trunc i32 %18 to i8
  store i8 %29, ptr %19, align 1, !tbaa !12
  %30 = getelementptr inbounds nuw i8, ptr %0, i64 12
  %31 = getelementptr inbounds nuw i8, ptr %0, i64 15
  store i8 0, ptr %31, align 1, !tbaa !12
  %32 = getelementptr inbounds nuw i8, ptr %0, i64 14
  store i8 0, ptr %32, align 1, !tbaa !12
  %33 = getelementptr inbounds nuw i8, ptr %0, i64 13
  store i8 0, ptr %33, align 1, !tbaa !12
  store i8 6, ptr %30, align 1, !tbaa !12
  br label %34

34:                                               ; preds = %11, %14, %3
  %.0 = phi i1 [ false, %3 ], [ true, %14 ], [ false, %11 ]
  ret i1 %.0
}